; Function Attrs: inlinehint mustprogress nounwind uwtable
define internal void @_ZN8QuantLib12_GLOBAL__N_124FdmSparkSpreadInnerValueD2Ev(ptr nocapture noundef nonnull align 8 dereferenceable(56) %this) unnamed_addr #4 align 2 personality ptr @__gxx_personality_v0 {
entry:
  store ptr getelementptr inbounds inrange(-16, 32) (i8, ptr @_ZTVN8QuantLib12_GLOBAL__N_124FdmSparkSpreadInnerValueE, i64 16), ptr %this, align 8, !tbaa !14
  %pn.i = getelementptr inbounds nuw i8, ptr %this, i64 48
  %0 = load ptr, ptr %pn.i, align 8, !tbaa !16
  %cmp.not.i.i = icmp eq ptr %0, null
  br i1 %cmp.not.i.i, label %_ZN5boost10shared_ptrIN8QuantLib23FdmInnerValueCalculatorEED2Ev.exit, label %if.then.i.i

if.then.i.i:                                      ; preds = %entry
  %use_count_.i.i.i = getelementptr inbounds nuw i8, ptr %0, i64 8
  %1 = atomicrmw sub ptr %use_count_.i.i.i, i32 1 acq_rel, align 4
  %cmp.i.i.i = icmp eq i32 %1, 1
  br i1 %cmp.i.i.i, label %if.then.i.i.i, label %_ZN5boost10shared_ptrIN8QuantLib23FdmInnerValueCalculatorEED2Ev.exit

if.then.i.i.i:                                    ; preds = %if.then.i.i
  %vtable.i.i.i = load ptr, ptr %0, align 8, !tbaa !14
  %vfn.i.i.i = getelementptr inbounds i8, ptr %vtable.i.i.i, i64 16
  %2 = load ptr, ptr %vfn.i.i.i, align 8
  invoke void %2(ptr noundef nonnull align 8 dereferenceable(16) %0)
          to label %.noexc.i.i unwind label %terminate.lpad.i.i

.noexc.i.i:                                       ; preds = %if.then.i.i.i
  %weak_count_.i.i.i.i = getelementptr inbounds nuw i8, ptr %0, i64 12
  %3 = atomicrmw sub ptr %weak_count_.i.i.i.i, i32 1 acq_rel, align 4
  %cmp.i.i.i.i = icmp eq i32 %3, 1
  br i1 %cmp.i.i.i.i, label %if.then.i.i.i.i, label %_ZN5boost10shared_ptrIN8QuantLib23FdmInnerValueCalculatorEED2Ev.exit

if.then.i.i.i.i:                                  ; preds = %.noexc.i.i
  %vtable.i.i.i.i = load ptr, ptr %0, align 8, !tbaa !14
  %vfn.i.i.i.i = getelementptr inbounds i8, ptr %vtable.i.i.i.i, i64 24
  %4 = load ptr, ptr %vfn.i.i.i.i, align 8
  invoke void %4(ptr noundef nonnull align 8 dereferenceable(16) %0)
          to label %_ZN5boost10shared_ptrIN8QuantLib23FdmInnerValueCalculatorEED2Ev.exit unwind label %terminate.lpad.i.i

terminate.lpad.i.i:                               ; preds = %if.then.i.i.i.i, %if.then.i.i.i
  %5 = landingpad { ptr, i32 }
          catch ptr null
  %6 = extractvalue { ptr, i32 } %5, 0
  tail call void @__clang_call_terminate(ptr %6) #32
  unreachable

_ZN5boost10shared_ptrIN8QuantLib23FdmInnerValueCalculatorEED2Ev.exit: ; preds = %entry, %if.then.i.i, %.noexc.i.i, %if.then.i.i.i.i
  %pn.i1 = getelementptr inbounds nuw i8, ptr %this, i64 32
  %7 = load ptr, ptr %pn.i1, align 8, !tbaa !16
  %cmp.not.i.i2 = icmp eq ptr %7, null
  br i1 %cmp.not.i.i2, label %_ZN5boost10shared_ptrIN8QuantLib23FdmInnerValueCalculatorEED2Ev.exit16, label %if.then.i.i3

if.then.i.i3:                                     ; preds = %_ZN5boost10shared_ptrIN8QuantLib23FdmInnerValueCalculatorEED2Ev.exit
  %use_count_.i.i.i4 = getelementptr inbounds nuw i8, ptr %7, i64 8
  %8 = atomicrmw sub ptr %use_count_.i.i.i4, i32 1 acq_rel, align 4
  %cmp.i.i.i5 = icmp eq i32 %8, 1
  br i1 %cmp.i.i.i5, label %if.then.i.i.i6, label %_ZN5boost10shared_ptrIN8QuantLib23FdmInnerValueCalculatorEED2Ev.exit16

if.then.i.i.i6:                                   ; preds = %if.then.i.i3
  %vtable.i.i.i7 = load ptr, ptr %7, align 8, !tbaa !14
  %vfn.i.i.i8 = getelementptr inbounds i8, ptr %vtable.i.i.i7, i64 16
  %9 = load ptr, ptr %vfn.i.i.i8, align 8
  invoke void %9(ptr noundef nonnull align 8 dereferenceable(16) %7)
          to label %.noexc.i.i10 unwind label %terminate.lpad.i.i9

.noexc.i.i10:                                     ; preds = %if.then.i.i.i6
  %weak_count_.i.i.i.i11 = getelementptr inbounds nuw i8, ptr %7, i64 12
  %10 = atomicrmw sub ptr %weak_count_.i.i.i.i11, i32 1 acq_rel, align 4
  %cmp.i.i.i.i12 = icmp eq i32 %10, 1
  br i1 %cmp.i.i.i.i12, label %if.then.i.i.i.i13, label %_ZN5boost10shared_ptrIN8QuantLib23FdmInnerValueCalculatorEED2Ev.exit16

if.then.i.i.i.i13:                                ; preds = %.noexc.i.i10
  %vtable.i.i.i.i14 = load ptr, ptr %7, align 8, !tbaa !14
  %vfn.i.i.i.i15 = getelementptr inbounds i8, ptr %vtable.i.i.i.i14, i64 24
  %11 = load ptr, ptr %vfn.i.i.i.i15, align 8
  invoke void %11(ptr noundef nonnull align 8 dereferenceable(16) %7)
          to label %_ZN5boost10shared_ptrIN8QuantLib23FdmInnerValueCalculatorEED2Ev.exit16 unwind label %terminate.lpad.i.i9

terminate.lpad.i.i9:                              ; preds = %if.then.i.i.i.i13, %if.then.i.i.i6
  %12 = landingpad { ptr, i32 }
          catch ptr null
  %13 = extractvalue { ptr, i32 } %12, 0
  tail call void @__clang_call_terminate(ptr %13) #32
  unreachable

_ZN5boost10shared_ptrIN8QuantLib23FdmInnerValueCalculatorEED2Ev.exit16: ; preds = %_ZN5boost10shared_ptrIN8QuantLib23FdmInnerValueCalculatorEED2Ev.exit, %if.then.i.i3, %.noexc.i.i10, %if.then.i.i.i.i13
  %pn.i17 = getelementptr inbounds nuw i8, ptr %this, i64 16
  %14 = load ptr, ptr %pn.i17, align 8, !tbaa !16
  %cmp.not.i.i18 = icmp eq ptr %14, null
  br i1 %cmp.not.i.i18, label %_ZN5boost10shared_ptrIN8QuantLib12BasketPayoffEED2Ev.exit, label %if.then.i.i19

if.then.i.i19:                                    ; preds = %_ZN5boost10shared_ptrIN8QuantLib23FdmInnerValueCalculatorEED2Ev.exit16
  %use_count_.i.i.i20 = getelementptr inbounds nuw i8, ptr %14, i64 8
  %15 = atomicrmw sub ptr %use_count_.i.i.i20, i32 1 acq_rel, align 4
  %cmp.i.i.i21 = icmp eq i32 %15, 1
  br i1 %cmp.i.i.i21, label %if.then.i.i.i22, label %_ZN5boost10shared_ptrIN8QuantLib12BasketPayoffEED2Ev.exit

if.then.i.i.i22:                                  ; preds = %if.then.i.i19
  %vtable.i.i.i23 = load ptr, ptr %14, align 8, !tbaa !14
  %vfn.i.i.i24 = getelementptr inbounds i8, ptr %vtable.i.i.i23, i64 16
  %16 = load ptr, ptr %vfn.i.i.i24, align 8
  invoke void %16(ptr noundef nonnull align 8 dereferenceable(16) %14)
          to label %.noexc.i.i26 unwind label %terminate.lpad.i.i25

.noexc.i.i26:                                     ; preds = %if.then.i.i.i22
  %weak_count_.i.i.i.i27 = getelementptr inbounds nuw i8, ptr %14, i64 12
  %17 = atomicrmw sub ptr %weak_count_.i.i.i.i27, i32 1 acq_rel, align 4
  %cmp.i.i.i.i28 = icmp eq i32 %17, 1
  br i1 %cmp.i.i.i.i28, label %if.then.i.i.i.i29, label %_ZN5boost10shared_ptrIN8QuantLib12BasketPayoffEED2Ev.exit

if.then.i.i.i.i29:                                ; preds = %.noexc.i.i26
  %vtable.i.i.i.i30 = load ptr, ptr %14, align 8, !tbaa !14
  %vfn.i.i.i.i31 = getelementptr inbounds i8, ptr %vtable.i.i.i.i30, i64 24
  %18 = load ptr, ptr %vfn.i.i.i.i31, align 8
  invoke void %18(ptr noundef nonnull align 8 dereferenceable(16) %14)
          to label %_ZN5boost10shared_ptrIN8QuantLib12BasketPayoffEED2Ev.exit unwind label %terminate.lpad.i.i25

terminate.lpad.i.i25:                             ; preds = %if.then.i.i.i.i29, %if.then.i.i.i22
  %19 = landingpad { ptr, i32 }
          catch ptr null
  %20 = extractvalue { ptr, i32 } %19, 0
  tail call void @__clang_call_terminate(ptr %20) #32
  unreachable

_ZN5boost10shared_ptrIN8QuantLib12BasketPayoffEED2Ev.exit: ; preds = %_ZN5boost10shared_ptrIN8QuantLib23FdmInnerValueCalculatorEED2Ev.exit16, %if.then.i.i19, %.noexc.i.i26, %if.then.i.i.i.i29
  ret void
}